target datalayout = "e-m:e-p270:32:32-p271:32:32-p272:64:64-i64:64-i128:128-f80:128-n8:16:32:64-S128"
target triple = "x86_64-pc-linux-gnu"

%struct.mbedtls_pk_info_t = type { i32, ptr, ptr, ptr, ptr, ptr, ptr, ptr, ptr, ptr, ptr, ptr }
%struct.mbedtls_pk_context = type { ptr, ptr }

; Function Attrs: nounwind uwtable
define hidden i32 @mbedtls_pk_decrypt(ptr noundef %0, ptr noundef %1, i64 noundef %2, ptr noundef %3, ptr noundef %4, i64 noundef %5, ptr noundef %6, ptr noundef %7) #0 {
  %9 = alloca i32, align 4
  %10 = alloca ptr, align 8
  %11 = alloca ptr, align 8
  %12 = alloca i64, align 8
  %13 = alloca ptr, align 8
  %14 = alloca ptr, align 8
  %15 = alloca i64, align 8
  %16 = alloca ptr, align 8
  %17 = alloca ptr, align 8
  store ptr %0, ptr %10, align 8, !tbaa !3
  store ptr %1, ptr %11, align 8, !tbaa !56
  store i64 %2, ptr %12, align 8, !tbaa !41
  store ptr %3, ptr %13, align 8, !tbaa !56
  store ptr %4, ptr %14, align 8, !tbaa !58
  store i64 %5, ptr %15, align 8, !tbaa !41
  store ptr %6, ptr %16, align 8, !tbaa !19
  store ptr %7, ptr %17, align 8, !tbaa !19
  %18 = load ptr, ptr %10, align 8, !tbaa !3
  %19 = getelementptr inbounds nuw %struct.mbedtls_pk_context, ptr %18, i32 0, i32 0
  %20 = load ptr, ptr %19, align 8, !tbaa !8
  %21 = icmp eq ptr %20, null
  br i1 %21, label %22, label %23

22:                                               ; preds = %8
  store i32 -16000, ptr %9, align 4
  br label %46

23:                                               ; preds = %8
  %24 = load ptr, ptr %10, align 8, !tbaa !3
  %25 = getelementptr inbounds nuw %struct.mbedtls_pk_context, ptr %24, i32 0, i32 0
  %26 = load ptr, ptr %25, align 8, !tbaa !8
  %27 = getelementptr inbounds nuw %struct.mbedtls_pk_info_t, ptr %26, i32 0, i32 6
  %28 = load ptr, ptr %27, align 8, !tbaa !67
  %29 = icmp eq ptr %28, null
  br i1 %29, label %30, label %31

30:                                               ; preds = %23
  store i32 -16128, ptr %9, align 4
  br label %46

31:                                               ; preds = %23
  %32 = load ptr, ptr %10, align 8, !tbaa !3
  %33 = getelementptr inbounds nuw %struct.mbedtls_pk_context, ptr %32, i32 0, i32 0
  %34 = load ptr, ptr %33, align 8, !tbaa !8
  %35 = getelementptr inbounds nuw %struct.mbedtls_pk_info_t, ptr %34, i32 0, i32 6
  %36 = load ptr, ptr %35, align 8, !tbaa !67
  %37 = load ptr, ptr %10, align 8, !tbaa !3
  %38 = load ptr, ptr %11, align 8, !tbaa !56
  %39 = load i64, ptr %12, align 8, !tbaa !41
  %40 = load ptr, ptr %13, align 8, !tbaa !56
  %41 = load ptr, ptr %14, align 8, !tbaa !58
  %42 = load i64, ptr %15, align 8, !tbaa !41
  %43 = load ptr, ptr %16, align 8, !tbaa !19
  %44 = load ptr, ptr %17, align 8, !tbaa !19
  %45 = call i32 %36(ptr noundef %37, ptr noundef %38, i64 noundef %39, ptr noundef %40, ptr noundef %41, i64 noundef %42, ptr noundef %43, ptr noundef %44)
  store i32 %45, ptr %9, align 4
  br label %46

46:                                               ; preds = %31, %30, %22
  %47 = load i32, ptr %9, align 4
  ret i32 %47
}